target datalayout = "e-m:e-p270:32:32-p271:32:32-p272:64:64-i64:64-i128:128-f80:128-n8:16:32:64-S128"
target triple = "x86_64-pc-linux-gnu"

; Function Attrs: nounwind uwtable
define internal void @put_char(i8 noundef signext %0, ptr noundef %1, ptr noundef %2, ptr noundef %3) #0 {
  %5 = alloca i8, align 1
  %6 = alloca ptr, align 8
  %7 = alloca ptr, align 8
  %8 = alloca ptr, align 8
  store i8 %0, ptr %5, align 1, !tbaa !16
  store ptr %1, ptr %6, align 8, !tbaa !29
  store ptr %2, ptr %7, align 8, !tbaa !45
  store ptr %3, ptr %8, align 8, !tbaa !45
  %9 = load ptr, ptr %7, align 8, !tbaa !45
  %10 = load i64, ptr %9, align 8, !tbaa !33
  %11 = icmp eq i64 %10, 0
  br i1 %11, label %12, label %16

12:                                               ; preds = %4
  %13 = load ptr, ptr %8, align 8, !tbaa !45
  %14 = load i64, ptr %13, align 8, !tbaa !33
  %15 = add i64 %14, 1
  store i64 %15, ptr %13, align 8, !tbaa !33
  br label %37

16:                                               ; preds = %4
  %17 = load ptr, ptr %7, align 8, !tbaa !45
  %18 = load i64, ptr %17, align 8, !tbaa !33
  %19 = icmp eq i64 %18, 1
  br i1 %19, label %20, label %23

20:                                               ; preds = %16
  %21 = load ptr, ptr %6, align 8, !tbaa !29
  %22 = load ptr, ptr %21, align 8, !tbaa !8
  store i8 0, ptr %22, align 1, !tbaa !16
  br label %27

23:                                               ; preds = %16
  %24 = load i8, ptr %5, align 1, !tbaa !16
  %25 = load ptr, ptr %6, align 8, !tbaa !29
  %26 = load ptr, ptr %25, align 8, !tbaa !8
  store i8 %24, ptr %26, align 1, !tbaa !16
  br label %27

27:                                               ; preds = %23, %20
  %28 = load ptr, ptr %6, align 8, !tbaa !29
  %29 = load ptr, ptr %28, align 8, !tbaa !8
  %30 = getelementptr inbounds nuw i8, ptr %29, i32 1
  store ptr %30, ptr %28, align 8, !tbaa !8
  %31 = load ptr, ptr %8, align 8, !tbaa !45
  %32 = load i64, ptr %31, align 8, !tbaa !33
  %33 = add i64 %32, 1
  store i64 %33, ptr %31, align 8, !tbaa !33
  %34 = load ptr, ptr %7, align 8, !tbaa !45
  %35 = load i64, ptr %34, align 8, !tbaa !33
  %36 = add i64 %35, -1
  store i64 %36, ptr %34, align 8, !tbaa !33
  br label %37

37:                                               ; preds = %27, %12
  ret void
}

; Function Attrs: nounwind uwtable
define internal void @put_str(ptr noundef %0, ptr noundef %1, ptr noundef %2, ptr noundef %3) #0 {
  %5 = alloca ptr, align 8
  %6 = alloca ptr, align 8
  %7 = alloca ptr, align 8
  %8 = alloca ptr, align 8
  %9 = alloca i64, align 8
  %10 = alloca i64, align 8
  %11 = alloca i64, align 8
  %12 = alloca i8, align 1
  %13 = alloca i32, align 4
  %14 = alloca i32, align 4
  store ptr %0, ptr %5, align 8, !tbaa !8
  store ptr %1, ptr %6, align 8, !tbaa !29
  store ptr %2, ptr %7, align 8, !tbaa !45
  store ptr %3, ptr %8, align 8, !tbaa !45
  call void @llvm.lifetime.start.p0(i64 8, ptr %9) #7
  call void @llvm.lifetime.start.p0(i64 8, ptr %10) #7
  call void @llvm.lifetime.start.p0(i64 8, ptr %11) #7
  call void @llvm.lifetime.start.p0(i64 1, ptr %12) #7
  store i8 0, ptr %12, align 1, !tbaa !16
  call void @llvm.lifetime.start.p0(i64 4, ptr %13) #7
  %15 = load ptr, ptr %5, align 8, !tbaa !8
  %16 = call i64 @strlen(ptr noundef %15) #8
  store i64 %16, ptr %9, align 8, !tbaa !33
  store i64 %16, ptr %10, align 8, !tbaa !33
  %17 = load i64, ptr %10, align 8, !tbaa !33
  %18 = load ptr, ptr %8, align 8, !tbaa !45
  %19 = load i64, ptr %18, align 8, !tbaa !33
  %20 = add i64 %19, %17
  store i64 %20, ptr %18, align 8, !tbaa !33
  store i64 0, ptr %11, align 8, !tbaa !33
  br label %21

21:                                               ; preds = %62, %4
  %22 = load i64, ptr %11, align 8, !tbaa !33
  %23 = load i64, ptr %10, align 8, !tbaa !33
  %24 = icmp ult i64 %22, %23
  br i1 %24, label %25, label %65

25:                                               ; preds = %21
  %26 = load ptr, ptr %5, align 8, !tbaa !8
  %27 = load i64, ptr %11, align 8, !tbaa !33
  %28 = getelementptr inbounds nuw i8, ptr %26, i64 %27
  %29 = load i8, ptr %28, align 1, !tbaa !16
  %30 = sext i8 %29 to i32
  %31 = call i32 @ossl_ctype_check(i32 noundef %30, i32 noundef 7)
  %32 = icmp ne i32 %31, 0
  br i1 %32, label %61, label %33

33:                                               ; preds = %25
  %34 = load ptr, ptr %5, align 8, !tbaa !8
  %35 = load i64, ptr %11, align 8, !tbaa !33
  %36 = getelementptr inbounds nuw i8, ptr %34, i64 %35
  %37 = load i8, ptr %36, align 1, !tbaa !16
  %38 = sext i8 %37 to i32
  %39 = icmp ne i32 %38, 46
  br i1 %39, label %40, label %61

40:                                               ; preds = %33
  %41 = load ptr, ptr %5, align 8, !tbaa !8
  %42 = load i64, ptr %11, align 8, !tbaa !33
  %43 = getelementptr inbounds nuw i8, ptr %41, i64 %42
  %44 = load i8, ptr %43, align 1, !tbaa !16
  %45 = sext i8 %44 to i32
  %46 = icmp ne i32 %45, 95
  br i1 %46, label %47, label %61

47:                                               ; preds = %40
  %48 = load i8, ptr %12, align 1, !tbaa !16
  %49 = sext i8 %48 to i32
  %50 = icmp eq i32 %49, 0
  br i1 %50, label %51, label %52

51:                                               ; preds = %47
  store i8 39, ptr %12, align 1, !tbaa !16
  br label %52

52:                                               ; preds = %51, %47
  %53 = load ptr, ptr %5, align 8, !tbaa !8
  %54 = load i64, ptr %11, align 8, !tbaa !33
  %55 = getelementptr inbounds nuw i8, ptr %53, i64 %54
  %56 = load i8, ptr %55, align 1, !tbaa !16
  %57 = sext i8 %56 to i32
  %58 = icmp eq i32 %57, 39
  br i1 %58, label %59, label %60

59:                                               ; preds = %52
  store i8 34, ptr %12, align 1, !tbaa !16
  br label %60

60:                                               ; preds = %59, %52
  br label %61

61:                                               ; preds = %60, %40, %33, %25
  br label %62

62:                                               ; preds = %61
  %63 = load i64, ptr %11, align 8, !tbaa !33
  %64 = add i64 %63, 1
  store i64 %64, ptr %11, align 8, !tbaa !33
  br label %21, !llvm.loop !47

65:                                               ; preds = %21
  %66 = load i8, ptr %12, align 1, !tbaa !16
  %67 = sext i8 %66 to i32
  %68 = icmp ne i32 %67, 0
  %69 = zext i1 %68 to i32
  store i32 %69, ptr %13, align 4, !tbaa !17
  %70 = load ptr, ptr %7, align 8, !tbaa !45
  %71 = load i64, ptr %70, align 8, !tbaa !33
  %72 = icmp eq i64 %71, 0
  br i1 %72, label %73, label %80

73:                                               ; preds = %65
  %74 = load i32, ptr %13, align 4, !tbaa !17
  %75 = mul nsw i32 2, %74
  %76 = sext i32 %75 to i64
  %77 = load ptr, ptr %8, align 8, !tbaa !45
  %78 = load i64, ptr %77, align 8, !tbaa !33
  %79 = add i64 %78, %76
  store i64 %79, ptr %77, align 8, !tbaa !33
  store i32 1, ptr %14, align 4
  br label %143

80:                                               ; preds = %65
  %81 = load i32, ptr %13, align 4, !tbaa !17
  %82 = icmp ne i32 %81, 0
  br i1 %82, label %83, label %88

83:                                               ; preds = %80
  %84 = load i8, ptr %12, align 1, !tbaa !16
  %85 = load ptr, ptr %6, align 8, !tbaa !29
  %86 = load ptr, ptr %7, align 8, !tbaa !45
  %87 = load ptr, ptr %8, align 8, !tbaa !45
  call void @put_char(i8 noundef signext %84, ptr noundef %85, ptr noundef %86, ptr noundef %87)
  br label %88

88:                                               ; preds = %83, %80
  %89 = load ptr, ptr %7, align 8, !tbaa !45
  %90 = load i64, ptr %89, align 8, !tbaa !33
  %91 = load i64, ptr %10, align 8, !tbaa !33
  %92 = add i64 %91, 1
  %93 = load i32, ptr %13, align 4, !tbaa !17
  %94 = sext i32 %93 to i64
  %95 = add i64 %92, %94
  %96 = icmp ult i64 %90, %95
  br i1 %96, label %97, label %101

97:                                               ; preds = %88
  %98 = load ptr, ptr %7, align 8, !tbaa !45
  %99 = load i64, ptr %98, align 8, !tbaa !33
  %100 = sub i64 %99, 1
  store i64 %100, ptr %10, align 8, !tbaa !33
  br label %101

101:                                              ; preds = %97, %88
  %102 = load i64, ptr %10, align 8, !tbaa !33
  %103 = icmp ugt i64 %102, 0
  br i1 %103, label %104, label %117

104:                                              ; preds = %101
  %105 = load ptr, ptr %6, align 8, !tbaa !29
  %106 = load ptr, ptr %105, align 8, !tbaa !8
  %107 = load ptr, ptr %5, align 8, !tbaa !8
  %108 = load i64, ptr %10, align 8, !tbaa !33
  call void @llvm.memcpy.p0.p0.i64(ptr align 1 %106, ptr align 1 %107, i64 %108, i1 false)
  %109 = load i64, ptr %10, align 8, !tbaa !33
  %110 = load ptr, ptr %6, align 8, !tbaa !29
  %111 = load ptr, ptr %110, align 8, !tbaa !8
  %112 = getelementptr inbounds nuw i8, ptr %111, i64 %109
  store ptr %112, ptr %110, align 8, !tbaa !8
  %113 = load i64, ptr %10, align 8, !tbaa !33
  %114 = load ptr, ptr %7, align 8, !tbaa !45
  %115 = load i64, ptr %114, align 8, !tbaa !33
  %116 = sub i64 %115, %113
  store i64 %116, ptr %114, align 8, !tbaa !33
  br label %117

117:                                              ; preds = %104, %101
  %118 = load i32, ptr %13, align 4, !tbaa !17
  %119 = icmp ne i32 %118, 0
  br i1 %119, label %120, label %125

120:                                              ; preds = %117
  %121 = load i8, ptr %12, align 1, !tbaa !16
  %122 = load ptr, ptr %6, align 8, !tbaa !29
  %123 = load ptr, ptr %7, align 8, !tbaa !45
  %124 = load ptr, ptr %8, align 8, !tbaa !45
  call void @put_char(i8 noundef signext %121, ptr noundef %122, ptr noundef %123, ptr noundef %124)
  br label %125

125:                                              ; preds = %120, %117
  %126 = load i64, ptr %10, align 8, !tbaa !33
  %127 = load i64, ptr %9, align 8, !tbaa !33
  %128 = icmp ult i64 %126, %127
  br i1 %128, label %129, label %142

129:                                              ; preds = %125
  %130 = load ptr, ptr %7, align 8, !tbaa !45
  %131 = load i64, ptr %130, align 8, !tbaa !33
  %132 = icmp eq i64 %131, 1
  br i1 %132, label %133, label %142

133:                                              ; preds = %129
  %134 = load ptr, ptr %6, align 8, !tbaa !29
  %135 = load ptr, ptr %134, align 8, !tbaa !8
  store i8 0, ptr %135, align 1, !tbaa !16
  %136 = load ptr, ptr %6, align 8, !tbaa !29
  %137 = load ptr, ptr %136, align 8, !tbaa !8
  %138 = getelementptr inbounds nuw i8, ptr %137, i32 1
  store ptr %138, ptr %136, align 8, !tbaa !8
  %139 = load ptr, ptr %7, align 8, !tbaa !45
  %140 = load i64, ptr %139, align 8, !tbaa !33
  %141 = add i64 %140, -1
  store i64 %141, ptr %139, align 8, !tbaa !33
  br label %142

142:                                              ; preds = %133, %129, %125
  store i32 0, ptr %14, align 4
  br label %143

143:                                              ; preds = %142, %73
  call void @llvm.lifetime.end.p0(i64 4, ptr %13) #7
  call void @llvm.lifetime.end.p0(i64 1, ptr %12) #7
  call void @llvm.lifetime.end.p0(i64 8, ptr %11) #7
  call void @llvm.lifetime.end.p0(i64 8, ptr %10) #7
  call void @llvm.lifetime.end.p0(i64 8, ptr %9) #7
  %144 = load i32, ptr %14, align 4
  switch i32 %144, label %146 [
    i32 0, label %145
    i32 1, label %145
  ]

145:                                              ; preds = %143, %143
  ret void

146:                                              ; preds = %143
  unreachable
}