; Function Attrs: nounwind uwtable
define internal fastcc void @put_str(ptr noundef nonnull readonly captures(none) %0, ptr noundef nonnull captures(none) %1, ptr noundef nonnull captures(none) %2, ptr noundef nonnull captures(none) %3) unnamed_addr #0 {
  %5 = tail call i64 @strlen(ptr noundef nonnull dereferenceable(1) %0) #10
  %6 = load i64, ptr %3, align 8, !tbaa !30
  %7 = add i64 %6, %5
  store i64 %7, ptr %3, align 8, !tbaa !30
  %.not62 = icmp eq i64 %5, 0
  br i1 %.not62, label %._crit_edge, label %.lr.ph

.lr.ph:                                           ; preds = %4, %17
  %.04761 = phi i8 [ %.1, %17 ], [ 0, %4 ]
  %.04860 = phi i64 [ %18, %17 ], [ 0, %4 ]
  %8 = getelementptr inbounds nuw i8, ptr %0, i64 %.04860
  %9 = load i8, ptr %8, align 1, !tbaa !3
  %10 = sext i8 %9 to i32
  %11 = tail call i32 @ossl_ctype_check(i32 noundef %10, i32 noundef 7) #9
  %.not52 = icmp eq i32 %11, 0
  br i1 %.not52, label %12, label %17

12:                                               ; preds = %.lr.ph
  %13 = load i8, ptr %8, align 1, !tbaa !3
  switch i8 %13, label %14 [
    i8 46, label %17
    i8 95, label %17
  ]

14:                                               ; preds = %12
  %15 = icmp eq i8 %.04761, 0
  %spec.store.select = select i1 %15, i8 39, i8 %.04761
  %16 = icmp eq i8 %13, 39
  %spec.store.select1 = select i1 %16, i8 34, i8 %spec.store.select
  br label %17

17:                                               ; preds = %12, %12, %14, %.lr.ph
  %.1 = phi i8 [ %.04761, %.lr.ph ], [ %spec.store.select1, %14 ], [ %.04761, %12 ], [ %.04761, %12 ]
  %18 = add nuw i64 %.04860, 1
  %exitcond.not = icmp eq i64 %18, %5
  br i1 %exitcond.not, label %._crit_edge, label %.lr.ph, !llvm.loop !34

._crit_edge:                                      ; preds = %17, %4
  %.047.lcssa = phi i8 [ 0, %4 ], [ %.1, %17 ]
  %19 = icmp ne i8 %.047.lcssa, 0
  %20 = load i64, ptr %2, align 8, !tbaa !30
  %21 = icmp eq i64 %20, 0
  br i1 %21, label %22, label %24

22:                                               ; preds = %._crit_edge
  %23 = select i1 %19, i64 2, i64 0
  br label %.sink.split

24:                                               ; preds = %._crit_edge
  br i1 %19, label %put_char.exit, label %32

put_char.exit:                                    ; preds = %24
  %cond = icmp eq i64 %20, 1
  %spec.select59 = select i1 %cond, i8 0, i8 %.047.lcssa
  %25 = load ptr, ptr %1, align 8, !tbaa !8
  store i8 %spec.select59, ptr %25, align 1, !tbaa !3
  %26 = load ptr, ptr %1, align 8, !tbaa !8
  %27 = getelementptr inbounds nuw i8, ptr %26, i64 1
  store ptr %27, ptr %1, align 8, !tbaa !8
  %28 = load i64, ptr %3, align 8, !tbaa !30
  %29 = add i64 %28, 1
  store i64 %29, ptr %3, align 8, !tbaa !30
  %30 = load i64, ptr %2, align 8, !tbaa !30
  %31 = add i64 %30, -1
  store i64 %31, ptr %2, align 8, !tbaa !30
  br label %32

32:                                               ; preds = %put_char.exit, %24
  %33 = phi i64 [ %31, %put_char.exit ], [ %20, %24 ]
  %34 = add i64 %5, 1
  %35 = zext i1 %19 to i64
  %36 = add i64 %34, %35
  %37 = icmp ult i64 %33, %36
  %38 = add i64 %33, -1
  %spec.select = select i1 %37, i64 %38, i64 %5
  %.not = icmp eq i64 %spec.select, 0
  br i1 %.not, label %45, label %39

39:                                               ; preds = %32
  %40 = load ptr, ptr %1, align 8, !tbaa !8
  tail call void @llvm.memcpy.p0.p0.i64(ptr align 1 %40, ptr nonnull align 1 %0, i64 %spec.select, i1 false)
  %41 = load ptr, ptr %1, align 8, !tbaa !8
  %42 = getelementptr inbounds nuw i8, ptr %41, i64 %spec.select
  store ptr %42, ptr %1, align 8, !tbaa !8
  %43 = load i64, ptr %2, align 8, !tbaa !30
  %44 = sub i64 %43, %spec.select
  store i64 %44, ptr %2, align 8, !tbaa !30
  br label %45

45:                                               ; preds = %39, %32
  %46 = phi i64 [ %44, %39 ], [ %33, %32 ]
  br i1 %19, label %47, label %57

47:                                               ; preds = %45
  switch i64 %46, label %48 [
    i64 0, label %put_char.exit58
    i64 1, label %49
  ]

48:                                               ; preds = %47
  br label %49

49:                                               ; preds = %48, %47
  %.sink.i55 = phi i8 [ %.047.lcssa, %48 ], [ 0, %47 ]
  %50 = load ptr, ptr %1, align 8, !tbaa !8
  store i8 %.sink.i55, ptr %50, align 1, !tbaa !3
  %51 = load ptr, ptr %1, align 8, !tbaa !8
  %52 = getelementptr inbounds nuw i8, ptr %51, i64 1
  store ptr %52, ptr %1, align 8, !tbaa !8
  %53 = load i64, ptr %3, align 8, !tbaa !30
  %54 = add i64 %53, 1
  store i64 %54, ptr %3, align 8, !tbaa !30
  br label %put_char.exit58

put_char.exit58:                                  ; preds = %47, %49
  %.sink13.i56 = phi ptr [ %2, %49 ], [ %3, %47 ]
  %.sink12.i57 = phi i64 [ -1, %49 ], [ 1, %47 ]
  %55 = load i64, ptr %.sink13.i56, align 8, !tbaa !30
  %56 = add i64 %55, %.sink12.i57
  store i64 %56, ptr %.sink13.i56, align 8, !tbaa !30
  br label %57

57:                                               ; preds = %put_char.exit58, %45
  %58 = icmp ult i64 %spec.select, %5
  br i1 %58, label %59, label %68

59:                                               ; preds = %57
  %60 = load i64, ptr %2, align 8, !tbaa !30
  %61 = icmp eq i64 %60, 1
  br i1 %61, label %62, label %68

62:                                               ; preds = %59
  %63 = load ptr, ptr %1, align 8, !tbaa !8
  store i8 0, ptr %63, align 1, !tbaa !3
  %64 = load ptr, ptr %1, align 8, !tbaa !8
  %65 = getelementptr inbounds nuw i8, ptr %64, i64 1
  store ptr %65, ptr %1, align 8, !tbaa !8
  br label %.sink.split

.sink.split:                                      ; preds = %22, %62
  %.sink = phi ptr [ %2, %62 ], [ %3, %22 ]
  %.sink65 = phi i64 [ -1, %62 ], [ %23, %22 ]
  %66 = load i64, ptr %.sink, align 8, !tbaa !30
  %67 = add i64 %66, %.sink65
  store i64 %67, ptr %.sink, align 8, !tbaa !30
  br label %68

68:                                               ; preds = %.sink.split, %57, %59
  ret void
}